; Function Attrs: inlinehint mustprogress nounwind uwtable
define internal void @_ZZN7rocksdb20WriteUnpreparedTxnDB28RollbackRecoveredTransactionEPKNS_6DBImpl20RecoveredTransactionEEN25RollbackWriteBatchBuilderD2Ev(ptr noundef nonnull align 8 dereferenceable(281) initializes((0, 8)) %0) unnamed_addr #6 align 2 personality ptr @__gxx_personality_v0 {
  store ptr getelementptr inbounds nuw inrange(-16, 192) (i8, ptr @_ZTVZN7rocksdb20WriteUnpreparedTxnDB28RollbackRecoveredTransactionEPKNS_6DBImpl20RecoveredTransactionEE25RollbackWriteBatchBuilder, i64 16), ptr %0, align 8, !tbaa !105
  %2 = getelementptr inbounds nuw i8, ptr %0, i64 232
  %3 = getelementptr inbounds nuw i8, ptr %0, i64 248
  %4 = load ptr, ptr %3, align 8, !tbaa !145
  invoke void @_ZNSt8_Rb_treeIjSt4pairIKjSt3setIN7rocksdb5SliceENS3_13SetComparatorESaIS4_EEESt10_Select1stIS8_ESt4lessIjESaIS8_EE8_M_eraseEPSt13_Rb_tree_nodeIS8_E(ptr noundef nonnull align 8 dereferenceable(48) %2, ptr noundef %4)
          to label %_ZNSt3mapIjSt3setIN7rocksdb5SliceENS1_13SetComparatorESaIS2_EESt4lessIjESaISt4pairIKjS5_EEED2Ev.exit unwind label %5

5:                                                ; preds = %1
  %6 = landingpad { ptr, i32 }
          catch ptr null
  %7 = extractvalue { ptr, i32 } %6, 0
  tail call void @__clang_call_terminate(ptr %7) #28
  unreachable

_ZNSt3mapIjSt3setIN7rocksdb5SliceENS1_13SetComparatorESaIS2_EESt4lessIjESaISt4pairIKjS5_EEED2Ev.exit: ; preds = %1
  %8 = getelementptr inbounds nuw i8, ptr %0, i64 152
  %9 = load ptr, ptr %8, align 8, !tbaa !222
  %.not.i.i = icmp eq ptr %9, null
  br i1 %.not.i.i, label %_ZN7rocksdb11ReadOptionsD2Ev.exit, label %10

10:                                               ; preds = %_ZNSt3mapIjSt3setIN7rocksdb5SliceENS1_13SetComparatorESaIS2_EESt4lessIjESaISt4pairIKjS5_EEED2Ev.exit
  %11 = getelementptr inbounds nuw i8, ptr %0, i64 136
  %12 = invoke noundef zeroext i1 %9(ptr noundef nonnull align 8 dereferenceable(32) %11, ptr noundef nonnull align 8 dereferenceable(32) %11, i32 noundef 3)
          to label %_ZN7rocksdb11ReadOptionsD2Ev.exit unwind label %13

13:                                               ; preds = %10
  %14 = landingpad { ptr, i32 }
          catch ptr null
  %15 = extractvalue { ptr, i32 } %14, 0
  tail call void @__clang_call_terminate(ptr %15) #28
  unreachable

_ZN7rocksdb11ReadOptionsD2Ev.exit:                ; preds = %_ZNSt3mapIjSt3setIN7rocksdb5SliceENS1_13SetComparatorESaIS2_EESt4lessIjESaISt4pairIKjS5_EEED2Ev.exit, %10
  tail call void @_ZN7rocksdb10WriteBatch7HandlerD2Ev(ptr noundef nonnull align 8 dereferenceable(8) %0) #26
  ret void
}